; ModuleID = '24/2470.c'
source_filename = "24/2470.c"
target datalayout = "e-m:e-p270:32:32-p271:32:32-p272:64:64-i64:64-f80:128-n8:16:32:64-S128"
target triple = "x86_64-pc-linux-gnu"

@.str = private unnamed_addr constant [3 x i8] c"%c\00", align 1
@.str.1 = private unnamed_addr constant [2 x i8] c"\0A\00", align 1

; Function Attrs: noinline nounwind uwtable
define dso_local i32 @main() #0 {
  %1 = alloca i32, align 4
  %2 = alloca [5000 x i8], align 16
  %3 = alloca i32, align 4
  %4 = alloca i32, align 4
  %5 = alloca i32, align 4
  %6 = alloca i32, align 4
  %7 = alloca i32, align 4
  %8 = alloca i32, align 4
  store i32 0, i32* %1, align 4
  %9 = bitcast [5000 x i8]* %2 to i8*
  call void @llvm.memset.p0i8.i64(i8* align 16 %9, i8 0, i64 5000, i1 false)
  store i32 0, i32* %3, align 4
  store i32 100, i32* %4, align 4
  store i32 0, i32* %5, align 4
  %10 = getelementptr inbounds [5000 x i8], [5000 x i8]* %2, i64 0, i64 0
  %11 = call i32 (i8*, ...) bitcast (i32 (...)* @gets to i32 (i8*, ...)*)(i8* %10)
  %12 = getelementptr inbounds [5000 x i8], [5000 x i8]* %2, i64 0, i64 0
  %13 = call i64 @strlen(i8* %12) #4
  %14 = getelementptr inbounds [5000 x i8], [5000 x i8]* %2, i64 0, i64 %13
  store i8 32, i8* %14, align 1
  store i32 0, i32* %6, align 4
  br label %15

15:                                               ; preds = %51, %0
  %16 = load i32, i32* %6, align 4
  %17 = sext i32 %16 to i64
  %18 = getelementptr inbounds [5000 x i8], [5000 x i8]* %2, i64 0, i64 0
  %19 = call i64 @strlen(i8* %18) #4
  %20 = icmp ult i64 %17, %19
  br i1 %20, label %21, label %54

21:                                               ; preds = %15
  %22 = load i32, i32* %6, align 4
  %23 = sext i32 %22 to i64
  %24 = getelementptr inbounds [5000 x i8], [5000 x i8]* %2, i64 0, i64 %23
  %25 = load i8, i8* %24, align 1
  %26 = sext i8 %25 to i32
  %27 = icmp ne i32 %26, 32
  br i1 %27, label %28, label %31

28:                                               ; preds = %21
  %29 = load i32, i32* %5, align 4
  %30 = add nsw i32 %29, 1
  store i32 %30, i32* %5, align 4
  br label %50

31:                                               ; preds = %21
  %32 = load i32, i32* %5, align 4
  %33 = load i32, i32* %3, align 4
  %34 = icmp sgt i32 %32, %33
  br i1 %34, label %35, label %40

35:                                               ; preds = %31
  %36 = load i32, i32* %5, align 4
  store i32 %36, i32* %3, align 4
  %37 = load i32, i32* %6, align 4
  %38 = load i32, i32* %5, align 4
  %39 = sub nsw i32 %37, %38
  store i32 %39, i32* %7, align 4
  br label %40

40:                                               ; preds = %35, %31
  %41 = load i32, i32* %5, align 4
  %42 = load i32, i32* %4, align 4
  %43 = icmp slt i32 %41, %42
  br i1 %43, label %44, label %49

44:                                               ; preds = %40
  %45 = load i32, i32* %5, align 4
  store i32 %45, i32* %4, align 4
  %46 = load i32, i32* %6, align 4
  %47 = load i32, i32* %5, align 4
  %48 = sub nsw i32 %46, %47
  store i32 %48, i32* %8, align 4
  br label %49

49:                                               ; preds = %44, %40
  store i32 0, i32* %5, align 4
  br label %50

50:                                               ; preds = %49, %28
  br label %51

51:                                               ; preds = %50
  %52 = load i32, i32* %6, align 4
  %53 = add nsw i32 %52, 1
  store i32 %53, i32* %6, align 4
  br label %15

54:                                               ; preds = %15
  %55 = load i32, i32* %7, align 4
  store i32 %55, i32* %6, align 4
  br label %56

56:                                               ; preds = %69, %54
  %57 = load i32, i32* %6, align 4
  %58 = load i32, i32* %7, align 4
  %59 = load i32, i32* %3, align 4
  %60 = add nsw i32 %58, %59
  %61 = icmp slt i32 %57, %60
  br i1 %61, label %62, label %72

62:                                               ; preds = %56
  %63 = load i32, i32* %6, align 4
  %64 = sext i32 %63 to i64
  %65 = getelementptr inbounds [5000 x i8], [5000 x i8]* %2, i64 0, i64 %64
  %66 = load i8, i8* %65, align 1
  %67 = sext i8 %66 to i32
  %68 = call i32 (i8*, ...) @printf(i8* getelementptr inbounds ([3 x i8], [3 x i8]* @.str, i64 0, i64 0), i32 %67)
  br label %69

69:                                               ; preds = %62
  %70 = load i32, i32* %6, align 4
  %71 = add nsw i32 %70, 1
  store i32 %71, i32* %6, align 4
  br label %56

72:                                               ; preds = %56
  %73 = call i32 (i8*, ...) @printf(i8* getelementptr inbounds ([2 x i8], [2 x i8]* @.str.1, i64 0, i64 0))
  %74 = load i32, i32* %8, align 4
  store i32 %74, i32* %6, align 4
  br label %75

75:                                               ; preds = %88, %72
  %76 = load i32, i32* %6, align 4
  %77 = load i32, i32* %8, align 4
  %78 = load i32, i32* %4, align 4
  %79 = add nsw i32 %77, %78
  %80 = icmp slt i32 %76, %79
  br i1 %80, label %81, label %91

81:                                               ; preds = %75
  %82 = load i32, i32* %6, align 4
  %83 = sext i32 %82 to i64
  %84 = getelementptr inbounds [5000 x i8], [5000 x i8]* %2, i64 0, i64 %83
  %85 = load i8, i8* %84, align 1
  %86 = sext i8 %85 to i32
  %87 = call i32 (i8*, ...) @printf(i8* getelementptr inbounds ([3 x i8], [3 x i8]* @.str, i64 0, i64 0), i32 %86)
  br label %88

88:                                               ; preds = %81
  %89 = load i32, i32* %6, align 4
  %90 = add nsw i32 %89, 1
  store i32 %90, i32* %6, align 4
  br label %75

91:                                               ; preds = %75
  ret i32 0
}

; Function Attrs: argmemonly nounwind willreturn
declare void @llvm.memset.p0i8.i64(i8* nocapture writeonly, i8, i64, i1 immarg) #1

declare dso_local i32 @gets(...) #2

; Function Attrs: nounwind readonly
declare dso_local i64 @strlen(i8*) #3

declare dso_local i32 @printf(i8*, ...) #2


!llvm.module.flags = !{!0}
!llvm.ident = !{!1}

!0 = !{i32 1, !"wchar_size", i32 4}
!1 = !{!"clang version 10.0.0-4ubuntu1 "}
